target datalayout = "e-m:e-p270:32:32-p271:32:32-p272:64:64-i64:64-i128:128-f80:128-n8:16:32:64-S128"
target triple = "x86_64-unknown-linux-gnu"

%struct.timeval = type { i64, i64 }

; Function Attrs: mustprogress nounwind uwtable
define linkonce_odr void @_ZN7rocksdb4port12GetTimeOfDayEP7timevalP8timezone(ptr noundef %tv, ptr noundef %tz) #3 comdat {
entry:
  %tv.addr = alloca ptr, align 8
  %tz.addr = alloca ptr, align 8
  store ptr %tv, ptr %tv.addr, align 8
  store ptr %tz, ptr %tz.addr, align 8
  %0 = load ptr, ptr %tv.addr, align 8
  %1 = load ptr, ptr %tz.addr, align 8
  %call = call i32 @gettimeofday(ptr noundef %0, ptr noundef %1) #4
  ret void
}

; Function Attrs: mustprogress uwtable
define internal noundef i64 @_ZN7rocksdb12_GLOBAL__N_110PosixClock9NowMicrosEv(ptr noundef nonnull align 8 dereferenceable(32) %this) unnamed_addr #2 align 2 {
entry:
  %this.addr = alloca ptr, align 8
  %tv = alloca %struct.timeval, align 8
  store ptr %this, ptr %this.addr, align 8
  call void @_ZN7rocksdb4port12GetTimeOfDayEP7timevalP8timezone(ptr noundef %tv, ptr noundef null)
  %tv_sec = getelementptr inbounds %struct.timeval, ptr %tv, i32 0, i32 0
  %0 = load i64, ptr %tv_sec, align 8
  %mul = mul i64 %0, 1000000
  %tv_usec = getelementptr inbounds %struct.timeval, ptr %tv, i32 0, i32 1
  %1 = load i64, ptr %tv_usec, align 8
  %add = add i64 %mul, %1
  ret i64 %add
}