; Function Attrs: mustprogress nofree nounwind uwtable
define internal noundef i64 @_ZN7rocksdb12_GLOBAL__N_110PosixClock9NowMicrosEv(ptr nocapture nonnull readnone align 8 %this) unnamed_addr #17 align 2 {
entry:
  %tv = alloca %struct.timeval, align 8
  %call.i = call i32 @gettimeofday(ptr noundef nonnull %tv, ptr noundef null) #22
  %0 = load i64, ptr %tv, align 8
  %mul = mul i64 %0, 1000000
  %tv_usec = getelementptr inbounds i8, ptr %tv, i64 8
  %1 = load i64, ptr %tv_usec, align 8
  %add = add i64 %mul, %1
  ret i64 %add
}